target datalayout = "e-m:e-p270:32:32-p271:32:32-p272:64:64-i64:64-i128:128-f80:128-n8:16:32:64-S128"
target triple = "x86_64-pc-linux-gnu"

%struct.psa_global_data_t = type { [23 x ptr], [22 x i64], i8 }
%struct.psa_key_slot_t = type { %struct.psa_key_attributes_s, i32, i8, %union.anon, %struct.key_data }
%struct.psa_key_attributes_s = type { i16, i16, i32, %struct.psa_key_policy_s, i32 }
%struct.psa_key_policy_s = type { i32, i32, i32 }
%union.anon = type { %struct.anon.0 }
%struct.anon.0 = type { i64 }
%struct.key_data = type { ptr, i64 }
%struct.mbedtls_psa_stats_s = type { i64, i64, i64, i64, i64, i64, i64, i32, i32 }

@global_data = internal global %struct.psa_global_data_t zeroinitializer, align 8

; Function Attrs: inlinehint nounwind uwtable
define internal i32 @psa_key_slot_has_readers(ptr noundef %0) #3 {
  %2 = alloca ptr, align 8
  store ptr %0, ptr %2, align 8, !tbaa !7
  %3 = load ptr, ptr %2, align 8, !tbaa !7
  %4 = getelementptr inbounds nuw %struct.psa_key_slot_t, ptr %3, i32 0, i32 3
  %5 = getelementptr inbounds nuw %struct.anon.0, ptr %4, i32 0, i32 0
  %6 = load i64, ptr %5, align 8, !tbaa !20
  %7 = icmp ugt i64 %6, 0
  %8 = zext i1 %7 to i32
  ret i32 %8
}

; Function Attrs: inlinehint nounwind uwtable
define internal ptr @get_key_slot(i64 noundef %0, i64 noundef %1) #3 {
  %3 = alloca i64, align 8
  %4 = alloca i64, align 8
  store i64 %0, ptr %3, align 8, !tbaa !11
  store i64 %1, ptr %4, align 8, !tbaa !11
  %5 = load i64, ptr %3, align 8, !tbaa !11
  %6 = getelementptr inbounds nuw [23 x ptr], ptr @global_data, i64 0, i64 %5
  %7 = load ptr, ptr %6, align 8, !tbaa !7
  %8 = load i64, ptr %4, align 8, !tbaa !11
  %9 = getelementptr inbounds nuw %struct.psa_key_slot_t, ptr %7, i64 %8
  ret ptr %9
}

; Function Attrs: inlinehint nounwind uwtable
define internal i64 @key_slice_length(i64 noundef %0) #3 {
  %2 = alloca i64, align 8
  %3 = alloca i64, align 8
  store i64 %0, ptr %3, align 8, !tbaa !11
  %4 = load i64, ptr %3, align 8, !tbaa !11
  %5 = icmp eq i64 %4, 22
  br i1 %5, label %6, label %7

6:                                                ; preds = %1
  store i64 32, ptr %2, align 8
  br label %12

7:                                                ; preds = %1
  %8 = load i64, ptr %3, align 8, !tbaa !11
  %9 = trunc i64 %8 to i32
  %10 = shl i32 16, %9
  %11 = zext i32 %10 to i64
  store i64 %11, ptr %2, align 8
  br label %12

12:                                               ; preds = %7, %6
  %13 = load i64, ptr %2, align 8
  ret i64 %13
}

; Function Attrs: nounwind uwtable
define hidden void @mbedtls_psa_get_stats(ptr noundef %0) #0 {
  %2 = alloca ptr, align 8
  %3 = alloca i64, align 8
  %4 = alloca i32, align 4
  %5 = alloca i64, align 8
  %6 = alloca ptr, align 8
  %7 = alloca i32, align 4
  %8 = alloca i32, align 4
  store ptr %0, ptr %2, align 8, !tbaa !38
  %9 = load ptr, ptr %2, align 8, !tbaa !38
  call void @llvm.memset.p0.i64(ptr align 8 %9, i8 0, i64 64, i1 false)
  call void @llvm.lifetime.start.p0(i64 8, ptr %3) #7
  store i64 0, ptr %3, align 8, !tbaa !11
  br label %10

10:                                               ; preds = %116, %1
  %11 = load i64, ptr %3, align 8, !tbaa !11
  %12 = icmp ult i64 %11, 23
  br i1 %12, label %14, label %13

13:                                               ; preds = %10
  store i32 2, ptr %4, align 4
  call void @llvm.lifetime.end.p0(i64 8, ptr %3) #7
  br label %119

14:                                               ; preds = %10
  %15 = load i64, ptr %3, align 8, !tbaa !11
  %16 = getelementptr inbounds nuw [23 x ptr], ptr @global_data, i64 0, i64 %15
  %17 = load ptr, ptr %16, align 8, !tbaa !7
  %18 = icmp eq ptr %17, null
  br i1 %18, label %19, label %20

19:                                               ; preds = %14
  br label %116

20:                                               ; preds = %14
  call void @llvm.lifetime.start.p0(i64 8, ptr %5) #7
  store i64 0, ptr %5, align 8, !tbaa !11
  br label %21

21:                                               ; preds = %112, %20
  %22 = load i64, ptr %5, align 8, !tbaa !11
  %23 = load i64, ptr %3, align 8, !tbaa !11
  %24 = call i64 @key_slice_length(i64 noundef %23)
  %25 = icmp ult i64 %22, %24
  br i1 %25, label %27, label %26

26:                                               ; preds = %21
  store i32 5, ptr %4, align 4
  call void @llvm.lifetime.end.p0(i64 8, ptr %5) #7
  br label %115

27:                                               ; preds = %21
  call void @llvm.lifetime.start.p0(i64 8, ptr %6) #7
  %28 = load i64, ptr %3, align 8, !tbaa !11
  %29 = load i64, ptr %5, align 8, !tbaa !11
  %30 = call ptr @get_key_slot(i64 noundef %28, i64 noundef %29)
  store ptr %30, ptr %6, align 8, !tbaa !7
  %31 = load ptr, ptr %6, align 8, !tbaa !7
  %32 = getelementptr inbounds nuw %struct.psa_key_slot_t, ptr %31, i32 0, i32 1
  %33 = load i32, ptr %32, align 8, !tbaa !13
  %34 = icmp eq i32 %33, 0
  br i1 %34, label %35, label %40

35:                                               ; preds = %27
  %36 = load ptr, ptr %2, align 8, !tbaa !38
  %37 = getelementptr inbounds nuw %struct.mbedtls_psa_stats_s, ptr %36, i32 0, i32 5
  %38 = load i64, ptr %37, align 8, !tbaa !40
  %39 = add i64 %38, 1
  store i64 %39, ptr %37, align 8, !tbaa !40
  store i32 7, ptr %4, align 4
  br label %109

40:                                               ; preds = %27
  %41 = load ptr, ptr %6, align 8, !tbaa !7
  %42 = call i32 @psa_key_slot_has_readers(ptr noundef %41)
  %43 = icmp ne i32 %42, 0
  br i1 %43, label %44, label %49

44:                                               ; preds = %40
  %45 = load ptr, ptr %2, align 8, !tbaa !38
  %46 = getelementptr inbounds nuw %struct.mbedtls_psa_stats_s, ptr %45, i32 0, i32 6
  %47 = load i64, ptr %46, align 8, !tbaa !42
  %48 = add i64 %47, 1
  store i64 %48, ptr %46, align 8, !tbaa !42
  br label %49

49:                                               ; preds = %44, %40
  %50 = load ptr, ptr %6, align 8, !tbaa !7
  %51 = getelementptr inbounds nuw %struct.psa_key_slot_t, ptr %50, i32 0, i32 0
  %52 = getelementptr inbounds nuw %struct.psa_key_attributes_s, ptr %51, i32 0, i32 2
  %53 = load i32, ptr %52, align 4, !tbaa !29
  %54 = and i32 %53, 255
  %55 = trunc i32 %54 to i8
  %56 = zext i8 %55 to i32
  %57 = icmp eq i32 %56, 0
  br i1 %57, label %58, label %63

58:                                               ; preds = %49
  %59 = load ptr, ptr %2, align 8, !tbaa !38
  %60 = getelementptr inbounds nuw %struct.mbedtls_psa_stats_s, ptr %59, i32 0, i32 0
  %61 = load i64, ptr %60, align 8, !tbaa !43
  %62 = add i64 %61, 1
  store i64 %62, ptr %60, align 8, !tbaa !43
  br label %82

63:                                               ; preds = %49
  call void @llvm.lifetime.start.p0(i64 4, ptr %7) #7
  %64 = load ptr, ptr %6, align 8, !tbaa !7
  %65 = getelementptr inbounds nuw %struct.psa_key_slot_t, ptr %64, i32 0, i32 0
  %66 = getelementptr inbounds nuw %struct.psa_key_attributes_s, ptr %65, i32 0, i32 4
  %67 = load i32, ptr %66, align 4, !tbaa !33
  store i32 %67, ptr %7, align 4, !tbaa !3
  %68 = load ptr, ptr %2, align 8, !tbaa !38
  %69 = getelementptr inbounds nuw %struct.mbedtls_psa_stats_s, ptr %68, i32 0, i32 1
  %70 = load i64, ptr %69, align 8, !tbaa !44
  %71 = add i64 %70, 1
  store i64 %71, ptr %69, align 8, !tbaa !44
  %72 = load i32, ptr %7, align 4, !tbaa !3
  %73 = load ptr, ptr %2, align 8, !tbaa !38
  %74 = getelementptr inbounds nuw %struct.mbedtls_psa_stats_s, ptr %73, i32 0, i32 7
  %75 = load i32, ptr %74, align 8, !tbaa !45
  %76 = icmp ugt i32 %72, %75
  br i1 %76, label %77, label %81

77:                                               ; preds = %63
  %78 = load i32, ptr %7, align 4, !tbaa !3
  %79 = load ptr, ptr %2, align 8, !tbaa !38
  %80 = getelementptr inbounds nuw %struct.mbedtls_psa_stats_s, ptr %79, i32 0, i32 7
  store i32 %78, ptr %80, align 8, !tbaa !45
  br label %81

81:                                               ; preds = %77, %63
  call void @llvm.lifetime.end.p0(i64 4, ptr %7) #7
  br label %82

82:                                               ; preds = %81, %58
  %83 = load ptr, ptr %6, align 8, !tbaa !7
  %84 = getelementptr inbounds nuw %struct.psa_key_slot_t, ptr %83, i32 0, i32 0
  %85 = getelementptr inbounds nuw %struct.psa_key_attributes_s, ptr %84, i32 0, i32 2
  %86 = load i32, ptr %85, align 4, !tbaa !29
  %87 = lshr i32 %86, 8
  %88 = icmp ne i32 %87, 0
  br i1 %88, label %89, label %108

89:                                               ; preds = %82
  call void @llvm.lifetime.start.p0(i64 4, ptr %8) #7
  %90 = load ptr, ptr %6, align 8, !tbaa !7
  %91 = getelementptr inbounds nuw %struct.psa_key_slot_t, ptr %90, i32 0, i32 0
  %92 = getelementptr inbounds nuw %struct.psa_key_attributes_s, ptr %91, i32 0, i32 4
  %93 = load i32, ptr %92, align 4, !tbaa !33
  store i32 %93, ptr %8, align 4, !tbaa !3
  %94 = load ptr, ptr %2, align 8, !tbaa !38
  %95 = getelementptr inbounds nuw %struct.mbedtls_psa_stats_s, ptr %94, i32 0, i32 2
  %96 = load i64, ptr %95, align 8, !tbaa !46
  %97 = add i64 %96, 1
  store i64 %97, ptr %95, align 8, !tbaa !46
  %98 = load i32, ptr %8, align 4, !tbaa !3
  %99 = load ptr, ptr %2, align 8, !tbaa !38
  %100 = getelementptr inbounds nuw %struct.mbedtls_psa_stats_s, ptr %99, i32 0, i32 8
  %101 = load i32, ptr %100, align 4, !tbaa !47
  %102 = icmp ugt i32 %98, %101
  br i1 %102, label %103, label %107

103:                                              ; preds = %89
  %104 = load i32, ptr %8, align 4, !tbaa !3
  %105 = load ptr, ptr %2, align 8, !tbaa !38
  %106 = getelementptr inbounds nuw %struct.mbedtls_psa_stats_s, ptr %105, i32 0, i32 8
  store i32 %104, ptr %106, align 4, !tbaa !47
  br label %107

107:                                              ; preds = %103, %89
  call void @llvm.lifetime.end.p0(i64 4, ptr %8) #7
  br label %108

108:                                              ; preds = %107, %82
  store i32 0, ptr %4, align 4
  br label %109

109:                                              ; preds = %108, %35
  call void @llvm.lifetime.end.p0(i64 8, ptr %6) #7
  %110 = load i32, ptr %4, align 4
  switch i32 %110, label %120 [
    i32 0, label %111
    i32 7, label %112
  ]

111:                                              ; preds = %109
  br label %112

112:                                              ; preds = %111, %109
  %113 = load i64, ptr %5, align 8, !tbaa !11
  %114 = add i64 %113, 1
  store i64 %114, ptr %5, align 8, !tbaa !11
  br label %21, !llvm.loop !48

115:                                              ; preds = %26
  br label %116

116:                                              ; preds = %115, %19
  %117 = load i64, ptr %3, align 8, !tbaa !11
  %118 = add i64 %117, 1
  store i64 %118, ptr %3, align 8, !tbaa !11
  br label %10, !llvm.loop !49

119:                                              ; preds = %13
  ret void

120:                                              ; preds = %109
  unreachable
}