; Function Attrs: nofree norecurse nosync nounwind memory(read, argmem: readwrite, inaccessiblemem: none) uwtable
define hidden void @mbedtls_psa_get_stats(ptr noundef writeonly captures(none) initializes((0, 64)) %0) local_unnamed_addr #8 {
  tail call void @llvm.memset.p0.i64(ptr noundef nonnull align 8 dereferenceable(64) %0, i8 0, i64 64, i1 false)
  %2 = getelementptr inbounds nuw i8, ptr %0, i64 48
  %3 = getelementptr inbounds nuw i8, ptr %0, i64 8
  %4 = getelementptr inbounds nuw i8, ptr %0, i64 56
  %5 = getelementptr inbounds nuw i8, ptr %0, i64 16
  %6 = getelementptr inbounds nuw i8, ptr %0, i64 60
  %7 = getelementptr inbounds nuw i8, ptr %0, i64 40
  br label %9

8:                                                ; preds = %.loopexit
  ret void

9:                                                ; preds = %1, %.loopexit
  %10 = phi i64 [ 0, %1 ], [ %74, %.loopexit ]
  %11 = phi i32 [ 0, %1 ], [ %75, %.loopexit ]
  %12 = phi i64 [ 0, %1 ], [ %76, %.loopexit ]
  %13 = phi i64 [ 0, %1 ], [ %77, %.loopexit ]
  %14 = phi i32 [ 0, %1 ], [ %78, %.loopexit ]
  %15 = phi i64 [ 0, %1 ], [ %79, %.loopexit ]
  %16 = phi i64 [ 0, %1 ], [ %80, %.loopexit ]
  %.033 = phi i64 [ 0, %1 ], [ %81, %.loopexit ]
  %17 = getelementptr inbounds nuw [23 x ptr], ptr @global_data, i64 0, i64 %.033
  %18 = load ptr, ptr %17, align 8, !tbaa !3
  %19 = icmp eq ptr %18, null
  br i1 %19, label %.loopexit, label %.preheader

.preheader:                                       ; preds = %9
  %20 = icmp eq i64 %.033, 22
  %21 = trunc nuw i64 %.033 to i32
  %22 = shl i32 16, %21
  %23 = zext i32 %22 to i64
  %.0.i = select i1 %20, i64 32, i64 %23
  %.not = icmp eq i64 %.0.i, 0
  br i1 %.not, label %.loopexit, label %.lr.ph

.lr.ph:                                           ; preds = %.preheader, %65
  %24 = phi i64 [ %66, %65 ], [ %10, %.preheader ]
  %25 = phi i32 [ %67, %65 ], [ %11, %.preheader ]
  %26 = phi i64 [ %68, %65 ], [ %12, %.preheader ]
  %27 = phi i64 [ %69, %65 ], [ %13, %.preheader ]
  %28 = phi i32 [ %70, %65 ], [ %14, %.preheader ]
  %29 = phi i64 [ %71, %65 ], [ %15, %.preheader ]
  %30 = phi i64 [ %72, %65 ], [ %16, %.preheader ]
  %.02732 = phi i64 [ %73, %65 ], [ 0, %.preheader ]
  %31 = getelementptr inbounds nuw %struct.psa_key_slot_t, ptr %18, i64 %.02732
  %32 = getelementptr inbounds nuw i8, ptr %31, i64 24
  %33 = load i32, ptr %32, align 8, !tbaa !9
  %34 = icmp eq i32 %33, 0
  br i1 %34, label %35, label %37

35:                                               ; preds = %.lr.ph
  %36 = add i64 %24, 1
  store i64 %36, ptr %7, align 8, !tbaa !31
  br label %65

37:                                               ; preds = %.lr.ph
  %38 = getelementptr i8, ptr %31, i64 32
  %.val = load i64, ptr %38, align 8, !tbaa !18
  %.not31 = icmp eq i64 %.val, 0
  br i1 %.not31, label %41, label %39

39:                                               ; preds = %37
  %40 = add i64 %30, 1
  store i64 %40, ptr %2, align 8, !tbaa !33
  br label %41

41:                                               ; preds = %39, %37
  %42 = phi i64 [ %40, %39 ], [ %30, %37 ]
  %43 = getelementptr inbounds nuw i8, ptr %31, i64 4
  %44 = load i32, ptr %43, align 4, !tbaa !26
  %45 = and i32 %44, 255
  %46 = icmp eq i32 %45, 0
  br i1 %46, label %47, label %49

47:                                               ; preds = %41
  %48 = add i64 %27, 1
  store i64 %48, ptr %0, align 8, !tbaa !34
  br label %55

49:                                               ; preds = %41
  %50 = getelementptr inbounds nuw i8, ptr %31, i64 20
  %51 = load i32, ptr %50, align 4, !tbaa !28
  %52 = add i64 %29, 1
  store i64 %52, ptr %3, align 8, !tbaa !35
  %53 = icmp ugt i32 %51, %28
  br i1 %53, label %54, label %55

54:                                               ; preds = %49
  store i32 %51, ptr %4, align 8, !tbaa !36
  br label %55

55:                                               ; preds = %49, %54, %47
  %56 = phi i64 [ %27, %49 ], [ %27, %54 ], [ %48, %47 ]
  %57 = phi i32 [ %28, %49 ], [ %51, %54 ], [ %28, %47 ]
  %58 = phi i64 [ %52, %49 ], [ %52, %54 ], [ %29, %47 ]
  %.not30 = icmp ult i32 %44, 256
  br i1 %.not30, label %65, label %59

59:                                               ; preds = %55
  %60 = getelementptr inbounds nuw i8, ptr %31, i64 20
  %61 = load i32, ptr %60, align 4, !tbaa !28
  %62 = add i64 %26, 1
  store i64 %62, ptr %5, align 8, !tbaa !37
  %63 = icmp ugt i32 %61, %25
  br i1 %63, label %64, label %65

64:                                               ; preds = %59
  store i32 %61, ptr %6, align 4, !tbaa !38
  br label %65

65:                                               ; preds = %55, %64, %59, %35
  %66 = phi i64 [ %24, %55 ], [ %24, %64 ], [ %24, %59 ], [ %36, %35 ]
  %67 = phi i32 [ %25, %55 ], [ %61, %64 ], [ %25, %59 ], [ %25, %35 ]
  %68 = phi i64 [ %26, %55 ], [ %62, %64 ], [ %62, %59 ], [ %26, %35 ]
  %69 = phi i64 [ %56, %55 ], [ %56, %64 ], [ %56, %59 ], [ %27, %35 ]
  %70 = phi i32 [ %57, %55 ], [ %57, %64 ], [ %57, %59 ], [ %28, %35 ]
  %71 = phi i64 [ %58, %55 ], [ %58, %64 ], [ %58, %59 ], [ %29, %35 ]
  %72 = phi i64 [ %42, %55 ], [ %42, %64 ], [ %42, %59 ], [ %30, %35 ]
  %73 = add nuw nsw i64 %.02732, 1
  %exitcond.not = icmp eq i64 %73, %.0.i
  br i1 %exitcond.not, label %.loopexit, label %.lr.ph, !llvm.loop !39

.loopexit:                                        ; preds = %65, %.preheader, %9
  %74 = phi i64 [ %10, %.preheader ], [ %10, %9 ], [ %66, %65 ]
  %75 = phi i32 [ %11, %.preheader ], [ %11, %9 ], [ %67, %65 ]
  %76 = phi i64 [ %12, %.preheader ], [ %12, %9 ], [ %68, %65 ]
  %77 = phi i64 [ %13, %.preheader ], [ %13, %9 ], [ %69, %65 ]
  %78 = phi i32 [ %14, %.preheader ], [ %14, %9 ], [ %70, %65 ]
  %79 = phi i64 [ %15, %.preheader ], [ %15, %9 ], [ %71, %65 ]
  %80 = phi i64 [ %16, %.preheader ], [ %16, %9 ], [ %72, %65 ]
  %81 = add nuw nsw i64 %.033, 1
  %exitcond34.not = icmp eq i64 %81, 23
  br i1 %exitcond34.not, label %8, label %9, !llvm.loop !40
}